target datalayout = "e-m:e-p270:32:32-p271:32:32-p272:64:64-i64:64-i128:128-f80:128-n8:16:32:64-S128"
target triple = "x86_64-pc-linux-gnu"

@.str.67 = private unnamed_addr constant [3 x i8] c"NM\00", align 1
@.str.68 = private unnamed_addr constant [3 x i8] c"SK\00", align 1
@.str.69 = private unnamed_addr constant [3 x i8] c"L3\00", align 1
@.str.70 = private unnamed_addr constant [3 x i8] c"L2\00", align 1
@.str.71 = private unnamed_addr constant [3 x i8] c"L1\00", align 1
@.str.72 = private unnamed_addr constant [3 x i8] c"CR\00", align 1
@.str.73 = private unnamed_addr constant [3 x i8] c"HT\00", align 1

; Function Attrs: nounwind uwtable
define ptr @prte_hwloc_base_get_location(ptr noundef %0, i32 noundef %1, i32 noundef %2) #0 {
  %4 = alloca ptr, align 8
  %5 = alloca ptr, align 8
  %6 = alloca i32, align 4
  %7 = alloca i32, align 4
  %8 = alloca ptr, align 8
  %9 = alloca ptr, align 8
  %10 = alloca ptr, align 8
  %11 = alloca i64, align 8
  %12 = alloca i32, align 4
  store ptr %0, ptr %5, align 8, !tbaa !26
  store i32 %1, ptr %6, align 4, !tbaa !19
  store i32 %2, ptr %7, align 4, !tbaa !19
  call void @llvm.lifetime.start.p0(i64 8, ptr %8) #10
  call void @llvm.lifetime.start.p0(i64 8, ptr %9) #10
  call void @llvm.lifetime.start.p0(i64 8, ptr %10) #10
  store ptr null, ptr %10, align 8, !tbaa !26
  call void @llvm.lifetime.start.p0(i64 8, ptr %11) #10
  %13 = load ptr, ptr %5, align 8, !tbaa !26
  %14 = icmp eq ptr null, %13
  br i1 %14, label %15, label %16

15:                                               ; preds = %3
  store ptr null, ptr %4, align 8
  store i32 1, ptr %12, align 4
  br label %57

16:                                               ; preds = %3
  %17 = load i32, ptr %6, align 4, !tbaa !19
  switch i32 %17, label %25 [
    i32 13, label %18
    i32 1, label %19
    i32 6, label %20
    i32 5, label %21
    i32 4, label %22
    i32 2, label %23
    i32 3, label %24
  ]

18:                                               ; preds = %16
  store ptr @.str.67, ptr %9, align 8, !tbaa !26
  br label %26

19:                                               ; preds = %16
  store ptr @.str.68, ptr %9, align 8, !tbaa !26
  br label %26

20:                                               ; preds = %16
  store ptr @.str.69, ptr %9, align 8, !tbaa !26
  br label %26

21:                                               ; preds = %16
  store ptr @.str.70, ptr %9, align 8, !tbaa !26
  br label %26

22:                                               ; preds = %16
  store ptr @.str.71, ptr %9, align 8, !tbaa !26
  br label %26

23:                                               ; preds = %16
  store ptr @.str.72, ptr %9, align 8, !tbaa !26
  br label %26

24:                                               ; preds = %16
  store ptr @.str.73, ptr %9, align 8, !tbaa !26
  br label %26

25:                                               ; preds = %16
  store ptr null, ptr %4, align 8
  store i32 1, ptr %12, align 4
  br label %57

26:                                               ; preds = %24, %23, %22, %21, %20, %19, %18
  %27 = load ptr, ptr %5, align 8, !tbaa !26
  %28 = call ptr @PMIx_Argv_split(ptr noundef %27, i32 noundef 58)
  store ptr %28, ptr %8, align 8, !tbaa !28
  store i64 0, ptr %11, align 8, !tbaa !66
  br label %29

29:                                               ; preds = %51, %26
  %30 = load ptr, ptr %8, align 8, !tbaa !28
  %31 = load i64, ptr %11, align 8, !tbaa !66
  %32 = getelementptr inbounds nuw ptr, ptr %30, i64 %31
  %33 = load ptr, ptr %32, align 8, !tbaa !26
  %34 = icmp ne ptr null, %33
  br i1 %34, label %35, label %54

35:                                               ; preds = %29
  %36 = load ptr, ptr %8, align 8, !tbaa !28
  %37 = load i64, ptr %11, align 8, !tbaa !66
  %38 = getelementptr inbounds nuw ptr, ptr %36, i64 %37
  %39 = load ptr, ptr %38, align 8, !tbaa !26
  %40 = load ptr, ptr %9, align 8, !tbaa !26
  %41 = call i32 @strncmp(ptr noundef %39, ptr noundef %40, i64 noundef 2) #11
  %42 = icmp eq i32 0, %41
  br i1 %42, label %43, label %50

43:                                               ; preds = %35
  %44 = load ptr, ptr %8, align 8, !tbaa !28
  %45 = load i64, ptr %11, align 8, !tbaa !66
  %46 = getelementptr inbounds nuw ptr, ptr %44, i64 %45
  %47 = load ptr, ptr %46, align 8, !tbaa !26
  %48 = getelementptr inbounds i8, ptr %47, i64 2
  %49 = call noalias ptr @strdup(ptr noundef %48) #10
  store ptr %49, ptr %10, align 8, !tbaa !26
  br label %54

50:                                               ; preds = %35
  br label %51

51:                                               ; preds = %50
  %52 = load i64, ptr %11, align 8, !tbaa !66
  %53 = add i64 %52, 1
  store i64 %53, ptr %11, align 8, !tbaa !66
  br label %29, !llvm.loop !136

54:                                               ; preds = %43, %29
  %55 = load ptr, ptr %8, align 8, !tbaa !28
  call void @PMIx_Argv_free(ptr noundef %55)
  %56 = load ptr, ptr %10, align 8, !tbaa !26
  store ptr %56, ptr %4, align 8
  store i32 1, ptr %12, align 4
  br label %57

57:                                               ; preds = %54, %25, %15
  call void @llvm.lifetime.end.p0(i64 8, ptr %11) #10
  call void @llvm.lifetime.end.p0(i64 8, ptr %10) #10
  call void @llvm.lifetime.end.p0(i64 8, ptr %9) #10
  call void @llvm.lifetime.end.p0(i64 8, ptr %8) #10
  %58 = load ptr, ptr %4, align 8
  ret ptr %58
}