; Function Attrs: nounwind uwtable
define noalias ptr @prte_hwloc_base_get_location(ptr noundef %0, i32 noundef %1, i32 noundef %2) local_unnamed_addr #0 {
  %4 = icmp eq ptr %0, null
  br i1 %4, label %20, label %5

5:                                                ; preds = %3
  %switch.tableidx = add i32 %1, -1
  %6 = icmp ult i32 %switch.tableidx, 13
  br i1 %6, label %switch.hole_check, label %20

switch.hole_check:                                ; preds = %5
  %switch.maskindex = trunc nuw i32 %switch.tableidx to i16
  %switch.shifted = lshr i16 4159, %switch.maskindex
  %switch.lobit = trunc i16 %switch.shifted to i1
  br i1 %switch.lobit, label %switch.lookup, label %20

switch.lookup:                                    ; preds = %switch.hole_check
  %7 = zext nneg i32 %switch.tableidx to i64
  %switch.gep = getelementptr inbounds nuw [13 x ptr], ptr @switch.table.prte_hwloc_base_get_location, i64 0, i64 %7
  %switch.load = load ptr, ptr %switch.gep, align 8
  %8 = tail call ptr @PMIx_Argv_split(ptr noundef nonnull %0, i32 noundef 58) #18
  %9 = load ptr, ptr %8, align 8, !tbaa !20
  %.not19 = icmp eq ptr %9, null
  br i1 %.not19, label %.loopexit, label %.lr.ph

10:                                               ; preds = %.lr.ph
  %11 = add i64 %.020, 1
  %12 = getelementptr inbounds nuw ptr, ptr %8, i64 %11
  %13 = load ptr, ptr %12, align 8, !tbaa !20
  %.not = icmp eq ptr %13, null
  br i1 %.not, label %.loopexit, label %.lr.ph, !llvm.loop !114

.lr.ph:                                           ; preds = %switch.lookup, %10
  %14 = phi ptr [ %13, %10 ], [ %9, %switch.lookup ]
  %.020 = phi i64 [ %11, %10 ], [ 0, %switch.lookup ]
  %15 = tail call i32 @strncmp(ptr noundef nonnull dereferenceable(1) %14, ptr noundef nonnull dereferenceable(3) %switch.load, i64 noundef 2) #19
  %16 = icmp eq i32 %15, 0
  br i1 %16, label %17, label %10

17:                                               ; preds = %.lr.ph
  %18 = getelementptr inbounds nuw i8, ptr %14, i64 2
  %19 = tail call noalias ptr @strdup(ptr noundef nonnull %18) #18
  br label %.loopexit

.loopexit:                                        ; preds = %10, %switch.lookup, %17
  %.013 = phi ptr [ %19, %17 ], [ null, %switch.lookup ], [ null, %10 ]
  tail call void @PMIx_Argv_free(ptr noundef nonnull %8) #18
  br label %20

20:                                               ; preds = %switch.hole_check, %5, %3, %.loopexit
  %.015 = phi ptr [ %.013, %.loopexit ], [ null, %3 ], [ null, %5 ], [ null, %switch.hole_check ]
  ret ptr %.015
}